; Function Attrs: nounwind uwtable
define dso_local void @ReleaseCachedPlan(ptr noundef %0, ptr noundef %1) local_unnamed_addr #0 {
  %.not = icmp eq ptr %1, null
  br i1 %.not, label %5, label %3

3:                                                ; preds = %2
  %4 = ptrtoint ptr %0 to i64
  tail call void @ResourceOwnerForget(ptr noundef nonnull %1, i64 noundef %4, ptr noundef nonnull @planref_resowner_desc) #9
  br label %5

5:                                                ; preds = %3, %2
  %6 = getelementptr inbounds nuw i8, ptr %0, i64 36
  %7 = load i32, ptr %6, align 4
  %8 = add i32 %7, -1
  store i32 %8, ptr %6, align 4
  %9 = icmp eq i32 %8, 0
  br i1 %9, label %10, label %17

10:                                               ; preds = %5
  store i32 0, ptr %0, align 8
  %11 = getelementptr inbounds nuw i8, ptr %0, i64 16
  %12 = load i8, ptr %11, align 8, !range !4, !noundef !5
  %13 = trunc nuw i8 %12 to i1
  br i1 %13, label %17, label %14

14:                                               ; preds = %10
  %15 = getelementptr inbounds nuw i8, ptr %0, i64 40
  %16 = load ptr, ptr %15, align 8
  tail call void @MemoryContextDelete(ptr noundef %16) #9
  br label %17

17:                                               ; preds = %10, %14, %5
  ret void
}